	.file	"order.c"
	.text
.Ltext0:
	.comm	is_filled,4,4
	.globl	create_order
	.type	create_order, @function
create_order:
.LFB0:
	.file 1 "order.c"
	.loc 1 5 0
	.cfi_startproc
	pushl	%ebp
.LCFI0:
	.cfi_def_cfa_offset 8
	.cfi_offset 5, -8
	movl	%esp, %ebp
.LCFI1:
	.cfi_def_cfa_register 5
	.loc 1 6 0
	movl	$0, is_filled
	.loc 1 7 0
	popl	%ebp
.LCFI2:
	.cfi_restore 5
	.cfi_def_cfa 4, 4
	ret
	.cfi_endproc
.LFE0:
	.size	create_order, .-create_order
	.globl	fill
	.type	fill, @function
fill:
.LFB1:
	.loc 1 8 0
	.cfi_startproc
	pushl	%ebp
.LCFI3:
	.cfi_def_cfa_offset 8
	.cfi_offset 5, -8
	movl	%esp, %ebp
.LCFI4:
	.cfi_def_cfa_register 5
	subl	$24, %esp
	.loc 1 9 0
	movl	12(%ebp), %eax
	movl	%eax, 4(%esp)
	movl	8(%ebp), %eax
	movl	%eax, (%esp)
	call	warehouse_has_inventory
	testl	%eax, %eax
	jne	.L2
	.loc 1 10 0
	movl	12(%ebp), %eax
	movl	%eax, 4(%esp)
	movl	8(%ebp), %eax
	movl	%eax, (%esp)
	call	warehouse_remove
	.loc 1 11 0
	movl	$1, is_filled
.L2:
	.loc 1 13 0
	leave
.LCFI5:
	.cfi_restore 5
	.cfi_def_cfa 4, 4
	ret
	.cfi_endproc
.LFE1:
	.size	fill, .-fill
	.globl	isFilled
	.type	isFilled, @function
isFilled:
.LFB2:
	.loc 1 14 0
	.cfi_startproc
	pushl	%ebp
.LCFI6:
	.cfi_def_cfa_offset 8
	.cfi_offset 5, -8
	movl	%esp, %ebp
.LCFI7:
	.cfi_def_cfa_register 5
	.loc 1 15 0
	movl	is_filled, %eax
	.loc 1 16 0
	popl	%ebp
.LCFI8:
	.cfi_restore 5
	.cfi_def_cfa 4, 4
	ret
	.cfi_endproc
.LFE2:
	.size	isFilled, .-isFilled
.Letext0:
	.section	.note.GNU-stack,"",@progbits
